target datalayout = "e-m:e-p270:32:32-p271:32:32-p272:64:64-i64:64-i128:128-f80:128-n8:16:32:64-S128"
target triple = "x86_64-pc-linux-gnu"

%struct.Abc_Ntk_t_ = type { i32, i32, ptr, ptr, ptr, ptr, ptr, ptr, ptr, ptr, ptr, ptr, ptr, [11 x i32], i32, i32, i32, i32, ptr, i32, ptr, ptr, i32, i32, i32, double, i32, %struct.Vec_Int_t_, ptr, ptr, ptr, ptr, ptr, float, i32, ptr, ptr, ptr, ptr, ptr, ptr, ptr, ptr, ptr, ptr, ptr, ptr, ptr, ptr, ptr, ptr, ptr, ptr, ptr, ptr, ptr }
%struct.Vec_Int_t_ = type { i32, i32, ptr }
%struct.Vec_Ptr_t_ = type { i32, i32, ptr }
%struct.Abc_Obj_t_ = type { ptr, ptr, i32, i32, %struct.Vec_Int_t_, %struct.Vec_Int_t_, %union.anon, %union.anon.0 }
%union.anon = type { ptr }
%union.anon.0 = type { ptr }

; Function Attrs: nounwind uwtable
define internal ptr @Vec_PtrEntry(ptr noundef %0, i32 noundef %1) #0 {
  %3 = alloca ptr, align 8
  %4 = alloca i32, align 4
  store ptr %0, ptr %3, align 8
  store i32 %1, ptr %4, align 4
  %5 = load ptr, ptr %3, align 8
  %6 = getelementptr inbounds %struct.Vec_Ptr_t_, ptr %5, i32 0, i32 2
  %7 = load ptr, ptr %6, align 8
  %8 = load i32, ptr %4, align 4
  %9 = sext i32 %8 to i64
  %10 = getelementptr inbounds ptr, ptr %7, i64 %9
  %11 = load ptr, ptr %10, align 8
  ret ptr %11
}

; Function Attrs: nounwind uwtable
define internal i32 @Abc_ObjIsNode(ptr noundef %0) #0 {
  %2 = alloca ptr, align 8
  store ptr %0, ptr %2, align 8
  %3 = load ptr, ptr %2, align 8
  %4 = getelementptr inbounds %struct.Abc_Obj_t_, ptr %3, i32 0, i32 3
  %5 = load i32, ptr %4, align 4
  %6 = and i32 %5, 15
  %7 = icmp eq i32 %6, 7
  %8 = zext i1 %7 to i32
  ret i32 %8
}

; Function Attrs: nounwind uwtable
define internal ptr @Abc_NtkObj(ptr noundef %0, i32 noundef %1) #0 {
  %3 = alloca ptr, align 8
  %4 = alloca i32, align 4
  store ptr %0, ptr %3, align 8
  store i32 %1, ptr %4, align 4
  %5 = load ptr, ptr %3, align 8
  %6 = getelementptr inbounds %struct.Abc_Ntk_t_, ptr %5, i32 0, i32 5
  %7 = load ptr, ptr %6, align 8
  %8 = load i32, ptr %4, align 4
  %9 = call ptr @Vec_PtrEntry(ptr noundef %7, i32 noundef %8)
  ret ptr %9
}

; Function Attrs: nounwind uwtable
define internal i32 @Vec_PtrSize(ptr noundef %0) #0 {
  %2 = alloca ptr, align 8
  store ptr %0, ptr %2, align 8
  %3 = load ptr, ptr %2, align 8
  %4 = getelementptr inbounds %struct.Vec_Ptr_t_, ptr %3, i32 0, i32 1
  %5 = load i32, ptr %4, align 4
  ret i32 %5
}

; Function Attrs: nounwind uwtable
define i32 @Abc_NtkGetClauseNum(ptr noundef %0) #0 {
  %2 = alloca ptr, align 8
  %3 = alloca i32, align 4
  %4 = alloca ptr, align 8
  %5 = alloca ptr, align 8
  %6 = alloca ptr, align 8
  %7 = alloca ptr, align 8
  %8 = alloca ptr, align 8
  %9 = alloca i32, align 4
  store ptr %0, ptr %2, align 8
  store i32 0, ptr %3, align 4
  %10 = load ptr, ptr %2, align 8
  %11 = getelementptr inbounds %struct.Abc_Ntk_t_, ptr %10, i32 0, i32 30
  %12 = load ptr, ptr %11, align 8
  store ptr %12, ptr %8, align 8
  store i32 0, ptr %9, align 4
  br label %13

13:                                               ; preds = %75, %1
  %14 = load i32, ptr %9, align 4
  %15 = load ptr, ptr %2, align 8
  %16 = getelementptr inbounds %struct.Abc_Ntk_t_, ptr %15, i32 0, i32 5
  %17 = load ptr, ptr %16, align 8
  %18 = call i32 @Vec_PtrSize(ptr noundef %17)
  %19 = icmp slt i32 %14, %18
  br i1 %19, label %20, label %24

20:                                               ; preds = %13
  %21 = load ptr, ptr %2, align 8
  %22 = load i32, ptr %9, align 4
  %23 = call ptr @Abc_NtkObj(ptr noundef %21, i32 noundef %22)
  store ptr %23, ptr %4, align 8
  br label %24

24:                                               ; preds = %20, %13
  %25 = phi i1 [ false, %13 ], [ true, %20 ]
  br i1 %25, label %26, label %78

26:                                               ; preds = %24
  %27 = load ptr, ptr %4, align 8
  %28 = icmp eq ptr %27, null
  br i1 %28, label %33, label %29

29:                                               ; preds = %26
  %30 = load ptr, ptr %4, align 8
  %31 = call i32 @Abc_ObjIsNode(ptr noundef %30)
  %32 = icmp ne i32 %31, 0
  br i1 %32, label %34, label %33

33:                                               ; preds = %29, %26
  br label %74

34:                                               ; preds = %29
  %35 = load ptr, ptr %4, align 8
  %36 = getelementptr inbounds %struct.Abc_Obj_t_, ptr %35, i32 0, i32 6
  %37 = load ptr, ptr %36, align 8
  store ptr %37, ptr %7, align 8
  %38 = load ptr, ptr %8, align 8
  %39 = load ptr, ptr %7, align 8
  %40 = load ptr, ptr %7, align 8
  %41 = call ptr @Cudd_zddIsop(ptr noundef %38, ptr noundef %39, ptr noundef %40, ptr noundef %6)
  store ptr %41, ptr %5, align 8
  %42 = load ptr, ptr %5, align 8
  call void @Cudd_Ref(ptr noundef %42)
  %43 = load ptr, ptr %6, align 8
  call void @Cudd_Ref(ptr noundef %43)
  %44 = load ptr, ptr %8, align 8
  %45 = load ptr, ptr %6, align 8
  %46 = call i32 @Abc_CountZddCubes(ptr noundef %44, ptr noundef %45)
  %47 = load i32, ptr %3, align 4
  %48 = add nsw i32 %47, %46
  store i32 %48, ptr %3, align 4
  %49 = load ptr, ptr %8, align 8
  %50 = load ptr, ptr %5, align 8
  call void @Cudd_RecursiveDeref(ptr noundef %49, ptr noundef %50)
  %51 = load ptr, ptr %8, align 8
  %52 = load ptr, ptr %6, align 8
  call void @Cudd_RecursiveDerefZdd(ptr noundef %51, ptr noundef %52)
  %53 = load ptr, ptr %8, align 8
  %54 = load ptr, ptr %7, align 8
  %55 = ptrtoint ptr %54 to i64
  %56 = xor i64 %55, 1
  %57 = inttoptr i64 %56 to ptr
  %58 = load ptr, ptr %7, align 8
  %59 = ptrtoint ptr %58 to i64
  %60 = xor i64 %59, 1
  %61 = inttoptr i64 %60 to ptr
  %62 = call ptr @Cudd_zddIsop(ptr noundef %53, ptr noundef %57, ptr noundef %61, ptr noundef %6)
  store ptr %62, ptr %5, align 8
  %63 = load ptr, ptr %5, align 8
  call void @Cudd_Ref(ptr noundef %63)
  %64 = load ptr, ptr %6, align 8
  call void @Cudd_Ref(ptr noundef %64)
  %65 = load ptr, ptr %8, align 8
  %66 = load ptr, ptr %6, align 8
  %67 = call i32 @Abc_CountZddCubes(ptr noundef %65, ptr noundef %66)
  %68 = load i32, ptr %3, align 4
  %69 = add nsw i32 %68, %67
  store i32 %69, ptr %3, align 4
  %70 = load ptr, ptr %8, align 8
  %71 = load ptr, ptr %5, align 8
  call void @Cudd_RecursiveDeref(ptr noundef %70, ptr noundef %71)
  %72 = load ptr, ptr %8, align 8
  %73 = load ptr, ptr %6, align 8
  call void @Cudd_RecursiveDerefZdd(ptr noundef %72, ptr noundef %73)
  br label %74

74:                                               ; preds = %34, %33
  br label %75

75:                                               ; preds = %74
  %76 = load i32, ptr %9, align 4
  %77 = add nsw i32 %76, 1
  store i32 %77, ptr %9, align 4
  br label %13, !llvm.loop !21

78:                                               ; preds = %24
  %79 = load i32, ptr %3, align 4
  ret i32 %79
}