; Function Attrs: nounwind uwtable
define i32 @Abc_NtkGetClauseNum(ptr noundef readonly captures(none) %0) local_unnamed_addr #0 {
  %2 = alloca ptr, align 8
  %3 = getelementptr inbounds nuw i8, ptr %0, i64 256
  %4 = load ptr, ptr %3, align 8
  %5 = getelementptr inbounds nuw i8, ptr %0, i64 32
  %6 = load ptr, ptr %5, align 8
  %7 = getelementptr i8, ptr %6, i64 4
  %.val31 = load i32, ptr %7, align 4
  %8 = icmp sgt i32 %.val31, 0
  br i1 %8, label %.lr.ph, label %.critedge

.lr.ph:                                           ; preds = %1, %35
  %9 = phi ptr [ %36, %35 ], [ %6, %1 ]
  %indvars.iv = phi i64 [ %indvars.iv.next, %35 ], [ 0, %1 ]
  %.02732 = phi i32 [ %.1, %35 ], [ 0, %1 ]
  %10 = getelementptr i8, ptr %9, i64 8
  %.val29.val = load ptr, ptr %10, align 8
  %11 = getelementptr inbounds nuw ptr, ptr %.val29.val, i64 %indvars.iv
  %12 = load ptr, ptr %11, align 8
  %13 = icmp eq ptr %12, null
  br i1 %13, label %35, label %14

14:                                               ; preds = %.lr.ph
  %15 = getelementptr i8, ptr %12, i64 20
  %.val30 = load i32, ptr %15, align 4
  %16 = and i32 %.val30, 15
  %.not = icmp eq i32 %16, 7
  br i1 %.not, label %17, label %35

17:                                               ; preds = %14
  %18 = getelementptr inbounds nuw i8, ptr %12, i64 56
  %19 = load ptr, ptr %18, align 8
  %20 = call ptr @Cudd_zddIsop(ptr noundef %4, ptr noundef %19, ptr noundef %19, ptr noundef nonnull %2) #28
  call void @Cudd_Ref(ptr noundef %20) #28
  %21 = load ptr, ptr %2, align 8
  call void @Cudd_Ref(ptr noundef %21) #28
  %22 = load ptr, ptr %2, align 8
  %23 = call i32 @Abc_CountZddCubes(ptr noundef %4, ptr noundef %22) #28
  %24 = add nsw i32 %23, %.02732
  call void @Cudd_RecursiveDeref(ptr noundef %4, ptr noundef %20) #28
  %25 = load ptr, ptr %2, align 8
  call void @Cudd_RecursiveDerefZdd(ptr noundef %4, ptr noundef %25) #28
  %26 = ptrtoint ptr %19 to i64
  %27 = xor i64 %26, 1
  %28 = inttoptr i64 %27 to ptr
  %29 = call ptr @Cudd_zddIsop(ptr noundef %4, ptr noundef %28, ptr noundef %28, ptr noundef nonnull %2) #28
  call void @Cudd_Ref(ptr noundef %29) #28
  %30 = load ptr, ptr %2, align 8
  call void @Cudd_Ref(ptr noundef %30) #28
  %31 = load ptr, ptr %2, align 8
  %32 = call i32 @Abc_CountZddCubes(ptr noundef %4, ptr noundef %31) #28
  %33 = add nsw i32 %24, %32
  call void @Cudd_RecursiveDeref(ptr noundef %4, ptr noundef %29) #28
  %34 = load ptr, ptr %2, align 8
  call void @Cudd_RecursiveDerefZdd(ptr noundef %4, ptr noundef %34) #28
  %.pre = load ptr, ptr %5, align 8
  br label %35

35:                                               ; preds = %17, %14, %.lr.ph
  %36 = phi ptr [ %9, %.lr.ph ], [ %.pre, %17 ], [ %9, %14 ]
  %.1 = phi i32 [ %.02732, %.lr.ph ], [ %33, %17 ], [ %.02732, %14 ]
  %indvars.iv.next = add nuw nsw i64 %indvars.iv, 1
  %37 = getelementptr i8, ptr %36, i64 4
  %.val = load i32, ptr %37, align 4
  %38 = sext i32 %.val to i64
  %39 = icmp slt i64 %indvars.iv.next, %38
  br i1 %39, label %.lr.ph, label %.critedge, !llvm.loop !21

.critedge:                                        ; preds = %35, %1
  %.027.lcssa = phi i32 [ 0, %1 ], [ %.1, %35 ]
  ret i32 %.027.lcssa
}